target datalayout = "e-m:e-p270:32:32-p271:32:32-p272:64:64-i64:64-i128:128-f80:128-n8:16:32:64-S128"
target triple = "x86_64-pc-linux-gnu"

%struct.FunctionCallInfoBaseData = type { ptr, ptr, ptr, i32, i8, i16, [0 x %struct.NullableDatum] }
%struct.NullableDatum = type { i64, i8 }

; Function Attrs: inlinehint nounwind uwtable
define internal i64 @BoolGetDatum(i1 noundef zeroext %0) #5 {
  %2 = alloca i8, align 1
  %3 = zext i1 %0 to i8
  store i8 %3, ptr %2, align 1
  %4 = load i8, ptr %2, align 1, !range !12, !noundef !13
  %5 = trunc i8 %4 to i1
  %6 = select i1 %5, i32 1, i32 0
  %7 = sext i32 %6 to i64
  ret i64 %7
}

; Function Attrs: nounwind uwtable
define internal i32 @column_privilege_check(i32 noundef %0, i16 noundef signext %1, i32 noundef %2, i64 noundef %3) #0 {
  %5 = alloca i32, align 4
  %6 = alloca i32, align 4
  %7 = alloca i16, align 2
  %8 = alloca i32, align 4
  %9 = alloca i64, align 8
  %10 = alloca i32, align 4
  %11 = alloca i8, align 1
  %12 = alloca i32, align 4
  store i32 %0, ptr %6, align 4
  store i16 %1, ptr %7, align 2
  store i32 %2, ptr %8, align 4
  store i64 %3, ptr %9, align 8
  call void @llvm.lifetime.start.p0(i64 4, ptr %10) #9
  call void @llvm.lifetime.start.p0(i64 1, ptr %11) #9
  store i8 0, ptr %11, align 1
  %13 = load i16, ptr %7, align 2
  %14 = sext i16 %13 to i32
  %15 = icmp eq i32 %14, 0
  br i1 %15, label %16, label %17

16:                                               ; preds = %4
  store i32 -1, ptr %5, align 4
  store i32 1, ptr %12, align 4
  br label %44

17:                                               ; preds = %4
  %18 = load i32, ptr %6, align 4
  %19 = load i16, ptr %7, align 2
  %20 = load i32, ptr %8, align 4
  %21 = load i64, ptr %9, align 8
  %22 = call i32 @pg_attribute_aclcheck_ext(i32 noundef %18, i16 noundef signext %19, i32 noundef %20, i64 noundef %21, ptr noundef %11)
  store i32 %22, ptr %10, align 4
  %23 = load i32, ptr %10, align 4
  %24 = icmp eq i32 %23, 0
  br i1 %24, label %25, label %26

25:                                               ; preds = %17
  store i32 1, ptr %5, align 4
  store i32 1, ptr %12, align 4
  br label %44

26:                                               ; preds = %17
  %27 = load i8, ptr %11, align 1, !range !12, !noundef !13
  %28 = trunc i8 %27 to i1
  br i1 %28, label %29, label %30

29:                                               ; preds = %26
  store i32 -1, ptr %5, align 4
  store i32 1, ptr %12, align 4
  br label %44

30:                                               ; preds = %26
  br label %31

31:                                               ; preds = %30
  %32 = load i32, ptr %6, align 4
  %33 = load i32, ptr %8, align 4
  %34 = load i64, ptr %9, align 8
  %35 = call i32 @pg_class_aclcheck_ext(i32 noundef %32, i32 noundef %33, i64 noundef %34, ptr noundef %11)
  store i32 %35, ptr %10, align 4
  %36 = load i32, ptr %10, align 4
  %37 = icmp eq i32 %36, 0
  br i1 %37, label %38, label %39

38:                                               ; preds = %31
  store i32 1, ptr %5, align 4
  store i32 1, ptr %12, align 4
  br label %44

39:                                               ; preds = %31
  %40 = load i8, ptr %11, align 1, !range !12, !noundef !13
  %41 = trunc i8 %40 to i1
  br i1 %41, label %42, label %43

42:                                               ; preds = %39
  store i32 -1, ptr %5, align 4
  store i32 1, ptr %12, align 4
  br label %44

43:                                               ; preds = %39
  store i32 0, ptr %5, align 4
  store i32 1, ptr %12, align 4
  br label %44

44:                                               ; preds = %43, %42, %38, %29, %25, %16
  call void @llvm.lifetime.end.p0(i64 1, ptr %11) #9
  call void @llvm.lifetime.end.p0(i64 4, ptr %10) #9
  %45 = load i32, ptr %5, align 4
  ret i32 %45
}

; Function Attrs: nounwind uwtable
define internal i64 @convert_column_priv_string(ptr noundef %0) #0 {
  %2 = alloca ptr, align 8
  store ptr %0, ptr %2, align 8
  %3 = load ptr, ptr %2, align 8
  %4 = call i64 @convert_any_priv_string(ptr noundef %3, ptr noundef @convert_column_priv_string.column_priv_map)
  ret i64 %4
}

; Function Attrs: inlinehint nounwind uwtable
define internal ptr @DatumGetPointer(i64 noundef %0) #5 {
  %2 = alloca i64, align 8
  store i64 %0, ptr %2, align 8
  %3 = load i64, ptr %2, align 8
  %4 = inttoptr i64 %3 to ptr
  ret ptr %4
}

; Function Attrs: inlinehint nounwind uwtable
define internal signext i16 @DatumGetInt16(i64 noundef %0) #5 {
  %2 = alloca i64, align 8
  store i64 %0, ptr %2, align 8
  %3 = load i64, ptr %2, align 8
  %4 = trunc i64 %3 to i16
  ret i16 %4
}

; Function Attrs: inlinehint nounwind uwtable
define internal i32 @DatumGetObjectId(i64 noundef %0) #5 {
  %2 = alloca i64, align 8
  store i64 %0, ptr %2, align 8
  %3 = load i64, ptr %2, align 8
  %4 = trunc i64 %3 to i32
  ret i32 %4
}

; Function Attrs: nounwind uwtable
define dso_local i64 @has_column_privilege_id_id_attnum(ptr noundef %0) #0 {
  %2 = alloca i64, align 8
  %3 = alloca ptr, align 8
  %4 = alloca i32, align 4
  %5 = alloca i32, align 4
  %6 = alloca i16, align 2
  %7 = alloca ptr, align 8
  %8 = alloca i64, align 8
  %9 = alloca i32, align 4
  %10 = alloca i32, align 4
  store ptr %0, ptr %3, align 8
  call void @llvm.lifetime.start.p0(i64 4, ptr %4) #9
  %11 = load ptr, ptr %3, align 8
  %12 = getelementptr inbounds nuw %struct.FunctionCallInfoBaseData, ptr %11, i32 0, i32 6
  %13 = getelementptr inbounds [0 x %struct.NullableDatum], ptr %12, i64 0, i64 0
  %14 = getelementptr inbounds nuw %struct.NullableDatum, ptr %13, i32 0, i32 0
  %15 = load i64, ptr %14, align 8
  %16 = call i32 @DatumGetObjectId(i64 noundef %15)
  store i32 %16, ptr %4, align 4
  call void @llvm.lifetime.start.p0(i64 4, ptr %5) #9
  %17 = load ptr, ptr %3, align 8
  %18 = getelementptr inbounds nuw %struct.FunctionCallInfoBaseData, ptr %17, i32 0, i32 6
  %19 = getelementptr inbounds [0 x %struct.NullableDatum], ptr %18, i64 0, i64 1
  %20 = getelementptr inbounds nuw %struct.NullableDatum, ptr %19, i32 0, i32 0
  %21 = load i64, ptr %20, align 8
  %22 = call i32 @DatumGetObjectId(i64 noundef %21)
  store i32 %22, ptr %5, align 4
  call void @llvm.lifetime.start.p0(i64 2, ptr %6) #9
  %23 = load ptr, ptr %3, align 8
  %24 = getelementptr inbounds nuw %struct.FunctionCallInfoBaseData, ptr %23, i32 0, i32 6
  %25 = getelementptr inbounds [0 x %struct.NullableDatum], ptr %24, i64 0, i64 2
  %26 = getelementptr inbounds nuw %struct.NullableDatum, ptr %25, i32 0, i32 0
  %27 = load i64, ptr %26, align 8
  %28 = call signext i16 @DatumGetInt16(i64 noundef %27)
  store i16 %28, ptr %6, align 2
  call void @llvm.lifetime.start.p0(i64 8, ptr %7) #9
  %29 = load ptr, ptr %3, align 8
  %30 = getelementptr inbounds nuw %struct.FunctionCallInfoBaseData, ptr %29, i32 0, i32 6
  %31 = getelementptr inbounds [0 x %struct.NullableDatum], ptr %30, i64 0, i64 3
  %32 = getelementptr inbounds nuw %struct.NullableDatum, ptr %31, i32 0, i32 0
  %33 = load i64, ptr %32, align 8
  %34 = call ptr @DatumGetPointer(i64 noundef %33)
  %35 = call ptr @pg_detoast_datum_packed(ptr noundef %34)
  store ptr %35, ptr %7, align 8
  call void @llvm.lifetime.start.p0(i64 8, ptr %8) #9
  call void @llvm.lifetime.start.p0(i64 4, ptr %9) #9
  %36 = load ptr, ptr %7, align 8
  %37 = call i64 @convert_column_priv_string(ptr noundef %36)
  store i64 %37, ptr %8, align 8
  %38 = load i32, ptr %5, align 4
  %39 = load i16, ptr %6, align 2
  %40 = load i32, ptr %4, align 4
  %41 = load i64, ptr %8, align 8
  %42 = call i32 @column_privilege_check(i32 noundef %38, i16 noundef signext %39, i32 noundef %40, i64 noundef %41)
  store i32 %42, ptr %9, align 4
  %43 = load i32, ptr %9, align 4
  %44 = icmp slt i32 %43, 0
  br i1 %44, label %45, label %51

45:                                               ; preds = %1
  br label %46

46:                                               ; preds = %45
  %47 = load ptr, ptr %3, align 8
  %48 = getelementptr inbounds nuw %struct.FunctionCallInfoBaseData, ptr %47, i32 0, i32 4
  store i8 1, ptr %48, align 4
  store i64 0, ptr %2, align 8
  store i32 1, ptr %10, align 4
  br label %55

49:                                               ; No predecessors!
  br label %50

50:                                               ; preds = %49
  br label %51

51:                                               ; preds = %50, %1
  %52 = load i32, ptr %9, align 4
  %53 = icmp ne i32 %52, 0
  %54 = call i64 @BoolGetDatum(i1 noundef zeroext %53)
  store i64 %54, ptr %2, align 8
  store i32 1, ptr %10, align 4
  br label %55

55:                                               ; preds = %51, %46
  call void @llvm.lifetime.end.p0(i64 4, ptr %9) #9
  call void @llvm.lifetime.end.p0(i64 8, ptr %8) #9
  call void @llvm.lifetime.end.p0(i64 8, ptr %7) #9
  call void @llvm.lifetime.end.p0(i64 2, ptr %6) #9
  call void @llvm.lifetime.end.p0(i64 4, ptr %5) #9
  call void @llvm.lifetime.end.p0(i64 4, ptr %4) #9
  %56 = load i64, ptr %2, align 8
  ret i64 %56
}