; Function Attrs: nounwind uwtable
define dso_local range(i64 0, 2) i64 @has_column_privilege_id_id_attnum(ptr noundef captures(none) %0) local_unnamed_addr #0 {
  %2 = alloca i8, align 1
  %3 = getelementptr inbounds nuw i8, ptr %0, i64 32
  %4 = load i64, ptr %3, align 8
  %5 = trunc i64 %4 to i32
  %6 = getelementptr inbounds nuw i8, ptr %0, i64 48
  %7 = load i64, ptr %6, align 8
  %8 = trunc i64 %7 to i32
  %9 = getelementptr inbounds nuw i8, ptr %0, i64 64
  %10 = load i64, ptr %9, align 8
  %11 = trunc i64 %10 to i16
  %12 = getelementptr inbounds nuw i8, ptr %0, i64 80
  %13 = load i64, ptr %12, align 8
  %14 = inttoptr i64 %13 to ptr
  %15 = tail call ptr @pg_detoast_datum_packed(ptr noundef %14) #14
  %16 = tail call fastcc i64 @convert_any_priv_string(ptr noundef %15, ptr noundef nonnull @convert_column_priv_string.column_priv_map)
  call void @llvm.lifetime.start.p0(i64 1, ptr nonnull %2) #14
  store i8 0, ptr %2, align 1
  %17 = icmp eq i16 %11, 0
  br i1 %17, label %column_privilege_check.exit.thread, label %18

18:                                               ; preds = %1
  %19 = call i32 @pg_attribute_aclcheck_ext(i32 noundef %8, i16 noundef signext %11, i32 noundef %5, i64 noundef %16, ptr noundef nonnull %2) #14
  %20 = icmp eq i32 %19, 0
  br i1 %20, label %column_privilege_check.exit.thread15, label %21

21:                                               ; preds = %18
  %22 = load i8, ptr %2, align 1, !range !27, !noundef !28
  %23 = trunc nuw i8 %22 to i1
  br i1 %23, label %column_privilege_check.exit.thread, label %24

24:                                               ; preds = %21
  %25 = call i32 @pg_class_aclcheck_ext(i32 noundef %8, i32 noundef %5, i64 noundef %16, ptr noundef nonnull %2) #14
  %26 = icmp eq i32 %25, 0
  br i1 %26, label %column_privilege_check.exit.thread15, label %column_privilege_check.exit

column_privilege_check.exit.thread:               ; preds = %1, %21
  call void @llvm.lifetime.end.p0(i64 1, ptr nonnull %2) #14
  br label %28

column_privilege_check.exit.thread15:             ; preds = %18, %24
  call void @llvm.lifetime.end.p0(i64 1, ptr nonnull %2) #14
  br label %30

column_privilege_check.exit:                      ; preds = %24
  %27 = load i8, ptr %2, align 1, !range !27, !noundef !28
  call void @llvm.lifetime.end.p0(i64 1, ptr nonnull %2) #14
  %.not = icmp eq i8 %27, 0
  br i1 %.not, label %30, label %28

28:                                               ; preds = %column_privilege_check.exit.thread, %column_privilege_check.exit
  %29 = getelementptr inbounds nuw i8, ptr %0, i64 28
  store i8 1, ptr %29, align 4
  br label %30

30:                                               ; preds = %column_privilege_check.exit, %column_privilege_check.exit.thread15, %28
  %.0 = phi i64 [ 0, %28 ], [ 1, %column_privilege_check.exit.thread15 ], [ 0, %column_privilege_check.exit ]
  ret i64 %.0
}